; Function Attrs: nounwind uwtable
define void @png_set_rows(ptr noalias noundef %0, ptr noalias noundef %1, ptr noundef %2) local_unnamed_addr #2 {
  %4 = icmp eq ptr %0, null
  %5 = icmp eq ptr %1, null
  %or.cond = or i1 %4, %5
  br i1 %or.cond, label %15, label %6

6:                                                ; preds = %3
  %7 = getelementptr inbounds i8, ptr %1, i64 352
  %8 = load ptr, ptr %7, align 8
  %.not = icmp eq ptr %8, null
  %.not14 = icmp eq ptr %8, %2
  %or.cond16 = or i1 %.not, %.not14
  br i1 %or.cond16, label %10, label %9

9:                                                ; preds = %6
  tail call void @png_free_data(ptr noundef nonnull %0, ptr noundef nonnull %1, i32 noundef 64, i32 noundef 0) #12
  br label %10

10:                                               ; preds = %9, %6
  store ptr %2, ptr %7, align 8
  %.not15 = icmp eq ptr %2, null
  br i1 %.not15, label %15, label %11

11:                                               ; preds = %10
  %12 = getelementptr inbounds i8, ptr %1, i64 8
  %13 = load i32, ptr %12, align 8
  %14 = or i32 %13, 32768
  store i32 %14, ptr %12, align 8
  br label %15

15:                                               ; preds = %3, %11, %10
  ret void
}